; Function Attrs: nounwind uwtable
define ptr @l_Lake_escapeName_x21(ptr noundef %0) local_unnamed_addr #1 {
  %2 = ptrtoint ptr %0 to i64
  %3 = and i64 %2, 1
  %.not.i20 = icmp eq i64 %3, 0
  br i1 %.not.i20, label %7, label %4

4:                                                ; preds = %1
  %5 = lshr i64 %2, 1
  %6 = trunc i64 %5 to i32
  br label %lean_obj_tag.exit

7:                                                ; preds = %1
  %8 = getelementptr i8, ptr %0, i64 4
  %.val.i = load i32, ptr %8, align 4
  %9 = lshr i32 %.val.i, 24
  br label %lean_obj_tag.exit

lean_obj_tag.exit:                                ; preds = %4, %7
  %.0.i = phi i32 [ %6, %4 ], [ %9, %7 ]
  switch i32 %.0.i, label %50 [
    i32 0, label %10
    i32 1, label %13
  ]

10:                                               ; preds = %lean_obj_tag.exit
  %11 = load ptr, ptr @l_Lake_escapeName_x21___closed__4, align 8, !tbaa !4
  %12 = tail call ptr @l_panic___at_Lean_Name_getString_x21___spec__1(ptr noundef %11) #6
  br label %lean_dec.exit

13:                                               ; preds = %lean_obj_tag.exit
  %14 = getelementptr inbounds nuw i8, ptr %0, i64 8
  %15 = load ptr, ptr %14, align 8, !tbaa !4
  %16 = ptrtoint ptr %15 to i64
  %17 = and i64 %16, 1
  %.not.i21 = icmp eq i64 %17, 0
  br i1 %.not.i21, label %21, label %18

18:                                               ; preds = %13
  %19 = lshr i64 %16, 1
  %20 = trunc i64 %19 to i32
  br label %lean_obj_tag.exit24

21:                                               ; preds = %13
  %22 = getelementptr i8, ptr %15, i64 4
  %.val.i23 = load i32, ptr %22, align 4
  %23 = lshr i32 %.val.i23, 24
  br label %lean_obj_tag.exit24

lean_obj_tag.exit24:                              ; preds = %18, %21
  %.0.i22 = phi i32 [ %20, %18 ], [ %23, %21 ]
  %24 = icmp eq i32 %.0.i22, 0
  %25 = getelementptr inbounds nuw i8, ptr %0, i64 16
  %26 = load ptr, ptr %25, align 8, !tbaa !4
  br i1 %24, label %27, label %32

27:                                               ; preds = %lean_obj_tag.exit24
  %28 = load ptr, ptr @l_Lake_escapeIdent___closed__1, align 8, !tbaa !4
  %29 = tail call ptr @lean_string_append(ptr noundef %28, ptr noundef %26) #6
  %30 = load ptr, ptr @l_Lake_escapeIdent___closed__2, align 8, !tbaa !4
  %31 = tail call ptr @lean_string_append(ptr noundef %29, ptr noundef %30) #6
  br label %lean_dec.exit

32:                                               ; preds = %lean_obj_tag.exit24
  %33 = tail call ptr @l_Lake_escapeName_x21(ptr noundef %15)
  %34 = load ptr, ptr @l_Lake_escapeName_x21___closed__5, align 8, !tbaa !4
  %35 = tail call ptr @lean_string_append(ptr noundef %33, ptr noundef %34) #6
  %36 = load ptr, ptr @l_Lake_escapeIdent___closed__1, align 8, !tbaa !4
  %37 = tail call ptr @lean_string_append(ptr noundef %36, ptr noundef %26) #6
  %38 = load ptr, ptr @l_Lake_escapeIdent___closed__2, align 8, !tbaa !4
  %39 = tail call ptr @lean_string_append(ptr noundef %37, ptr noundef %38) #6
  %40 = tail call ptr @lean_string_append(ptr noundef %35, ptr noundef %39) #6
  %41 = ptrtoint ptr %39 to i64
  %42 = and i64 %41, 1
  %.not = icmp eq i64 %42, 0
  br i1 %.not, label %43, label %lean_dec.exit

43:                                               ; preds = %32
  %44 = load i32, ptr %39, align 4, !tbaa !8
  %45 = icmp sgt i32 %44, 1
  br i1 %45, label %46, label %48, !prof !11

46:                                               ; preds = %43
  %47 = add nsw i32 %44, -1
  store i32 %47, ptr %39, align 4, !tbaa !8
  br label %lean_dec.exit

48:                                               ; preds = %43
  %.not.i = icmp eq i32 %44, 0
  br i1 %.not.i, label %lean_dec.exit, label %49

49:                                               ; preds = %48
  tail call void @lean_dec_ref_cold(ptr noundef nonnull %39) #6
  br label %lean_dec.exit

50:                                               ; preds = %lean_obj_tag.exit
  %51 = load ptr, ptr @l_Lake_escapeName_x21___closed__6, align 8, !tbaa !4
  %52 = tail call ptr @l_panic___at_Lean_Name_getString_x21___spec__1(ptr noundef %51) #6
  br label %lean_dec.exit

lean_dec.exit:                                    ; preds = %32, %46, %48, %49, %27, %50, %10
  %.0 = phi ptr [ %52, %50 ], [ %12, %10 ], [ %31, %27 ], [ %40, %49 ], [ %40, %48 ], [ %40, %46 ], [ %40, %32 ]
  ret ptr %.0
}